; Function Attrs: mustprogress uwtable
define dso_local noundef zeroext i1 @_ZN3url14ReplacePathURLEPKcRKNS_6ParsedERKNS_12ReplacementsItEEPNS_12CanonOutputTIcEEPS2_(ptr noundef %base, ptr noundef nonnull align 8 dereferenceable(72) %base_parsed, ptr noundef nonnull align 8 dereferenceable(136) %replacements, ptr noundef %output, ptr noundef %new_parsed) local_unnamed_addr #0 personality ptr @__gxx_personality_v0 {
entry:
  %utf8 = alloca %"class.url::RawCanonOutput", align 8
  %source = alloca %"struct.url::URLComponentSource", align 8
  %parsed = alloca %"struct.url::Parsed", align 8
  %buffer_.i.i.i = getelementptr inbounds i8, ptr %utf8, i64 8
  %0 = getelementptr inbounds i8, ptr %utf8, i64 16
  store i64 1024, ptr %0, align 8
  %fixed_buffer_.i.i = getelementptr inbounds i8, ptr %utf8, i64 24
  store ptr %fixed_buffer_.i.i, ptr %buffer_.i.i.i, align 8
  store ptr getelementptr inbounds ({ [5 x ptr] }, ptr @_ZTVN3url14RawCanonOutputILi1024EEE, i64 0, i32 0, i64 2), ptr %utf8, align 8
  store ptr %base, ptr %source, align 8
  %username.i = getelementptr inbounds i8, ptr %source, i64 8
  store ptr %base, ptr %username.i, align 8
  %password.i = getelementptr inbounds i8, ptr %source, i64 16
  store ptr %base, ptr %password.i, align 8
  %host.i = getelementptr inbounds i8, ptr %source, i64 24
  store ptr %base, ptr %host.i, align 8
  %port.i = getelementptr inbounds i8, ptr %source, i64 32
  store ptr %base, ptr %port.i, align 8
  %path.i = getelementptr inbounds i8, ptr %source, i64 40
  store ptr %base, ptr %path.i, align 8
  %query.i = getelementptr inbounds i8, ptr %source, i64 48
  store ptr %base, ptr %query.i, align 8
  %ref.i = getelementptr inbounds i8, ptr %source, i64 56
  store ptr %base, ptr %ref.i, align 8
  invoke void @_ZN3url6ParsedC1ERKS0_(ptr noundef nonnull align 8 dereferenceable(72) %parsed, ptr noundef nonnull align 8 dereferenceable(72) %base_parsed)
          to label %invoke.cont1 unwind label %lpad

invoke.cont1:                                     ; preds = %entry
  %call = invoke noundef zeroext i1 @_ZN3url28SetupUTF16OverrideComponentsEPKcRKNS_12ReplacementsItEEPNS_12CanonOutputTIcEEPNS_18URLComponentSourceIcEEPNS_6ParsedE(ptr noundef %base, ptr noundef nonnull align 8 dereferenceable(136) %replacements, ptr noundef nonnull %utf8, ptr noundef nonnull %source, ptr noundef nonnull %parsed)
          to label %invoke.cont3 unwind label %lpad2

invoke.cont3:                                     ; preds = %invoke.cont1
  %1 = load ptr, ptr %source, align 8
  %call.i10 = invoke noundef zeroext i1 @_ZN3url18CanonicalizeSchemeEPKcRKNS_9ComponentEPNS_12CanonOutputTIcEEPS2_(ptr noundef %1, ptr noundef nonnull align 4 dereferenceable(8) %parsed, ptr noundef %output, ptr noundef %new_parsed)
          to label %call.i.noexc unwind label %lpad2

call.i.noexc:                                     ; preds = %invoke.cont3
  %username.i3 = getelementptr inbounds i8, ptr %new_parsed, i64 8
  store <4 x i32> <i32 0, i32 -1, i32 0, i32 -1>, ptr %username.i3, align 4
  %host.i5 = getelementptr inbounds i8, ptr %new_parsed, i64 24
  store <4 x i32> <i32 0, i32 -1, i32 0, i32 -1>, ptr %host.i5, align 4
  %2 = load ptr, ptr %path.i, align 8
  %path3.i = getelementptr inbounds i8, ptr %parsed, i64 40
  %path4.i = getelementptr inbounds i8, ptr %new_parsed, i64 40
  %call5.i11 = invoke fastcc noundef zeroext i1 @_ZN3url12_GLOBAL__N_127DoCanonicalizePathComponentIchEEbPKT_RKNS_9ComponentEcPNS_12CanonOutputTIcEEPS5_(ptr noundef %2, ptr noundef nonnull align 4 dereferenceable(8) %path3.i, i8 noundef signext 0, ptr noundef %output, ptr noundef nonnull %path4.i)
          to label %call5.i.noexc unwind label %lpad2

call5.i.noexc:                                    ; preds = %call.i.noexc
  %3 = load ptr, ptr %query.i, align 8
  %query9.i = getelementptr inbounds i8, ptr %parsed, i64 48
  %query10.i = getelementptr inbounds i8, ptr %new_parsed, i64 48
  %call11.i12 = invoke fastcc noundef zeroext i1 @_ZN3url12_GLOBAL__N_127DoCanonicalizePathComponentIchEEbPKT_RKNS_9ComponentEcPNS_12CanonOutputTIcEEPS5_(ptr noundef %3, ptr noundef nonnull align 4 dereferenceable(8) %query9.i, i8 noundef signext 63, ptr noundef %output, ptr noundef nonnull %query10.i)
          to label %call11.i.noexc unwind label %lpad2

call11.i.noexc:                                   ; preds = %call5.i.noexc
  %4 = load ptr, ptr %ref.i, align 8
  %ref18.i = getelementptr inbounds i8, ptr %parsed, i64 56
  %ref19.i = getelementptr inbounds i8, ptr %new_parsed, i64 56
  %call20.i13 = invoke fastcc noundef zeroext i1 @_ZN3url12_GLOBAL__N_127DoCanonicalizePathComponentIchEEbPKT_RKNS_9ComponentEcPNS_12CanonOutputTIcEEPS5_(ptr noundef %4, ptr noundef nonnull align 4 dereferenceable(8) %ref18.i, i8 noundef signext 35, ptr noundef %output, ptr noundef nonnull %ref19.i)
          to label %invoke.cont4 unwind label %lpad2

invoke.cont4:                                     ; preds = %call11.i.noexc
  call void @_ZN3url6ParsedD1Ev(ptr noundef nonnull align 8 dereferenceable(72) %parsed) #9
  store ptr getelementptr inbounds ({ [5 x ptr] }, ptr @_ZTVN3url15RawCanonOutputTIcLi1024EEE, i64 0, i32 0, i64 2), ptr %utf8, align 8
  %5 = load ptr, ptr %buffer_.i.i.i, align 8
  %cmp.not.i.i = icmp eq ptr %5, %fixed_buffer_.i.i
  %isnull.i.i = icmp eq ptr %5, null
  %or.cond.i.i = or i1 %cmp.not.i.i, %isnull.i.i
  br i1 %or.cond.i.i, label %_ZN3url14RawCanonOutputILi1024EED2Ev.exit, label %delete.notnull.i.i

delete.notnull.i.i:                               ; preds = %invoke.cont4
  call void @_ZdaPv(ptr noundef nonnull %5) #10
  br label %_ZN3url14RawCanonOutputILi1024EED2Ev.exit

_ZN3url14RawCanonOutputILi1024EED2Ev.exit:        ; preds = %invoke.cont4, %delete.notnull.i.i
  %and20.i = and i1 %call.i10, %call5.i11
  %and1521.i = and i1 %and20.i, %call11.i12
  %and2422.i = and i1 %and1521.i, %call20.i13
  ret i1 %and2422.i

lpad:                                             ; preds = %entry
  %6 = landingpad { ptr, i32 }
          cleanup
  br label %ehcleanup

lpad2:                                            ; preds = %call11.i.noexc, %call5.i.noexc, %call.i.noexc, %invoke.cont3, %invoke.cont1
  %7 = landingpad { ptr, i32 }
          cleanup
  call void @_ZN3url6ParsedD1Ev(ptr noundef nonnull align 8 dereferenceable(72) %parsed) #9
  br label %ehcleanup

ehcleanup:                                        ; preds = %lpad2, %lpad
  %.pn = phi { ptr, i32 } [ %7, %lpad2 ], [ %6, %lpad ]
  store ptr getelementptr inbounds ({ [5 x ptr] }, ptr @_ZTVN3url15RawCanonOutputTIcLi1024EEE, i64 0, i32 0, i64 2), ptr %utf8, align 8
  %8 = load ptr, ptr %buffer_.i.i.i, align 8
  %cmp.not.i.i17 = icmp eq ptr %8, %fixed_buffer_.i.i
  %isnull.i.i18 = icmp eq ptr %8, null
  %or.cond.i.i19 = or i1 %cmp.not.i.i17, %isnull.i.i18
  br i1 %or.cond.i.i19, label %_ZN3url14RawCanonOutputILi1024EED2Ev.exit21, label %delete.notnull.i.i20

delete.notnull.i.i20:                             ; preds = %ehcleanup
  call void @_ZdaPv(ptr noundef nonnull %8) #10
  br label %_ZN3url14RawCanonOutputILi1024EED2Ev.exit21

_ZN3url14RawCanonOutputILi1024EED2Ev.exit21:      ; preds = %ehcleanup, %delete.notnull.i.i20
  resume { ptr, i32 } %.pn
}